; Function Attrs: mustprogress uwtable
define noundef ptr @_ZN3g2o15SparseOptimizer9findGaugeEv(ptr noundef nonnull align 8 dereferenceable(409) %0) unnamed_addr #3 align 2 personality ptr @__gxx_personality_v0 {
  %2 = getelementptr inbounds i8, ptr %0, i64 32
  %3 = load i64, ptr %2, align 8
  %4 = icmp eq i64 %3, 0
  br i1 %4, label %.loopexit, label %5

5:                                                ; preds = %1
  %6 = tail call noundef i32 @_ZNK3g2o16OptimizableGraph12maxDimensionEv(ptr noundef nonnull align 8 dereferenceable(288) %0)
  %7 = getelementptr inbounds i8, ptr %0, i64 24
  br label %8

8:                                                ; preds = %9, %5
  %.sroa.06.0.in = phi ptr [ %7, %5 ], [ %.sroa.06.0, %9 ]
  %.sroa.06.0 = load ptr, ptr %.sroa.06.0.in, align 8
  %.not = icmp eq ptr %.sroa.06.0, null
  br i1 %.not, label %.loopexit, label %9

9:                                                ; preds = %8
  %10 = getelementptr inbounds i8, ptr %.sroa.06.0, i64 16
  %11 = load ptr, ptr %10, align 8
  %12 = getelementptr inbounds nuw i8, ptr %11, i64 104
  %13 = load i32, ptr %12, align 8
  %14 = icmp eq i32 %13, %6
  br i1 %14, label %.loopexit, label %8, !llvm.loop !10

.loopexit:                                        ; preds = %8, %9, %1
  %.0 = phi ptr [ null, %1 ], [ %11, %9 ], [ null, %8 ]
  ret ptr %.0
}